; ModuleID = '54/1112.c'
source_filename = "54/1112.c"
target datalayout = "e-m:e-p270:32:32-p271:32:32-p272:64:64-i64:64-f80:128-n8:16:32:64-S128"
target triple = "x86_64-pc-linux-gnu"

@.str = private unnamed_addr constant [5 x i8] c"%d%d\00", align 1
@.str.1 = private unnamed_addr constant [4 x i8] c"%d\0A\00", align 1

; Function Attrs: noinline nounwind uwtable
define dso_local i32 @main() #0 {
  %1 = alloca i32, align 4
  %2 = alloca i32, align 4
  %3 = alloca i32, align 4
  %4 = alloca i32, align 4
  %5 = alloca i32, align 4
  %6 = alloca i32, align 4
  store i32 0, i32* %1, align 4
  store i32 1, i32* %2, align 4
  %7 = call i32 (i8*, ...) @__isoc99_scanf(i8* getelementptr inbounds ([5 x i8], [5 x i8]* @.str, i64 0, i64 0), i32* %3, i32* %4)
  store i32 1, i32* %2, align 4
  br label %8

8:                                                ; preds = %44, %0
  %9 = load i32, i32* %2, align 4
  store i32 %9, i32* %6, align 4
  store i32 1, i32* %5, align 4
  br label %10

10:                                               ; preds = %30, %8
  %11 = load i32, i32* %5, align 4
  %12 = load i32, i32* %3, align 4
  %13 = icmp sle i32 %11, %12
  br i1 %13, label %14, label %33

14:                                               ; preds = %10
  %15 = load i32, i32* %6, align 4
  %16 = load i32, i32* %3, align 4
  %17 = srem i32 %15, %16
  %18 = load i32, i32* %4, align 4
  %19 = icmp eq i32 %17, %18
  br i1 %19, label %20, label %28

20:                                               ; preds = %14
  %21 = load i32, i32* %6, align 4
  %22 = load i32, i32* %6, align 4
  %23 = load i32, i32* %3, align 4
  %24 = sdiv i32 %22, %23
  %25 = sub nsw i32 %21, %24
  %26 = load i32, i32* %4, align 4
  %27 = sub nsw i32 %25, %26
  store i32 %27, i32* %6, align 4
  br label %29

28:                                               ; preds = %14
  br label %33

29:                                               ; preds = %20
  br label %30

30:                                               ; preds = %29
  %31 = load i32, i32* %5, align 4
  %32 = add nsw i32 %31, 1
  store i32 %32, i32* %5, align 4
  br label %10

33:                                               ; preds = %28, %10
  %34 = load i32, i32* %5, align 4
  %35 = load i32, i32* %3, align 4
  %36 = icmp sgt i32 %34, %35
  br i1 %36, label %37, label %43

37:                                               ; preds = %33
  %38 = load i32, i32* %6, align 4
  %39 = icmp sge i32 %38, 1
  br i1 %39, label %40, label %43

40:                                               ; preds = %37
  %41 = load i32, i32* %2, align 4
  %42 = call i32 (i8*, ...) @printf(i8* getelementptr inbounds ([4 x i8], [4 x i8]* @.str.1, i64 0, i64 0), i32 %41)
  br label %47

43:                                               ; preds = %37, %33
  br label %44

44:                                               ; preds = %43
  %45 = load i32, i32* %2, align 4
  %46 = add nsw i32 %45, 1
  store i32 %46, i32* %2, align 4
  br label %8

47:                                               ; preds = %40
  ret i32 0
}

declare dso_local i32 @__isoc99_scanf(i8*, ...) #1

declare dso_local i32 @printf(i8*, ...) #1


!llvm.module.flags = !{!0}
!llvm.ident = !{!1}

!0 = !{i32 1, !"wchar_size", i32 4}
!1 = !{!"clang version 10.0.0-4ubuntu1 "}
